; Function Attrs: nounwind uwtable
define hidden i32 @mbedtls_ecp_gen_keypair_base(ptr noundef %0, ptr noundef %1, ptr noundef %2, ptr noundef %3, ptr noundef %4, ptr noundef %5) local_unnamed_addr #7 {
  %7 = tail call i32 @mbedtls_ecp_gen_privkey(ptr noundef %0, ptr noundef %2, ptr noundef %4, ptr noundef %5)
  %.not = icmp eq i32 %7, 0
  br i1 %.not, label %8, label %mbedtls_ecp_mul.exit

8:                                                ; preds = %6
  %9 = icmp eq ptr %4, null
  br i1 %9, label %mbedtls_ecp_mul.exit, label %10

10:                                               ; preds = %8
  %11 = tail call fastcc i32 @ecp_mul_restartable_internal(ptr noundef %0, ptr noundef %3, ptr noundef %2, ptr noundef %1, ptr noundef nonnull %4, ptr noundef %5)
  br label %mbedtls_ecp_mul.exit

mbedtls_ecp_mul.exit:                             ; preds = %10, %8, %6
  %.0 = phi i32 [ %7, %6 ], [ %11, %10 ], [ -20352, %8 ]
  ret i32 %.0
}